; Function Attrs: nounwind uwtable
define dso_local void @scontrol_print_front_end(ptr noundef %0, ptr noundef readonly captures(none) %1) local_unnamed_addr #0 {
  %3 = getelementptr inbounds nuw i8, ptr %1, i64 8
  %4 = load i32, ptr %3, align 8
  %.not37 = icmp eq i32 %4, 0
  br i1 %.not37, label %.loopexit.thread, label %.lr.ph

.lr.ph:                                           ; preds = %2
  %.not = icmp eq ptr %0, null
  %5 = getelementptr inbounds nuw i8, ptr %1, i64 16
  br i1 %.not, label %.lr.ph.split.us.split, label %.lr.ph.split.preheader

.lr.ph.split.preheader:                           ; preds = %.lr.ph
  %.pre41 = load i32, ptr @scontrol_print_front_end.last_inx, align 4
  br label %.lr.ph.split

.lr.ph.split.us.split:                            ; preds = %.lr.ph, %16
  %6 = phi i32 [ %17, %16 ], [ %4, %.lr.ph ]
  %indvars.iv = phi i64 [ %indvars.iv.next, %16 ], [ 0, %.lr.ph ]
  %.034.us = phi i32 [ %.2.us, %16 ], [ 0, %.lr.ph ]
  %7 = load ptr, ptr %5, align 8
  %8 = getelementptr inbounds nuw %struct.front_end_info, ptr %7, i64 %indvars.iv, i32 5
  %9 = load ptr, ptr %8, align 8
  %10 = icmp eq ptr %9, null
  br i1 %10, label %16, label %11

11:                                               ; preds = %.lr.ph.split.us.split
  %12 = add nsw i32 %.034.us, 1
  %13 = load ptr, ptr @stdout, align 8
  %14 = getelementptr inbounds nuw %struct.front_end_info, ptr %7, i64 %indvars.iv
  %15 = load i32, ptr @one_liner, align 4
  tail call void @slurm_print_front_end_table(ptr noundef %13, ptr noundef %14, i32 noundef %15) #9
  %.pre43 = load i32, ptr %3, align 8
  br label %16

16:                                               ; preds = %11, %.lr.ph.split.us.split
  %17 = phi i32 [ %.pre43, %11 ], [ %6, %.lr.ph.split.us.split ]
  %.2.us = phi i32 [ %12, %11 ], [ %.034.us, %.lr.ph.split.us.split ]
  %indvars.iv.next = add nuw nsw i64 %indvars.iv, 1
  %18 = zext i32 %17 to i64
  %19 = icmp samesign ult i64 %indvars.iv.next, %18
  br i1 %19, label %.lr.ph.split.us.split, label %.loopexit, !llvm.loop !15

.lr.ph.split:                                     ; preds = %.lr.ph.split.preheader, %34
  %20 = phi i32 [ %35, %34 ], [ %4, %.lr.ph.split.preheader ]
  %21 = phi i32 [ %36, %34 ], [ %.pre41, %.lr.ph.split.preheader ]
  %.02133 = phi i32 [ %37, %34 ], [ 0, %.lr.ph.split.preheader ]
  %22 = add nsw i32 %21, %.02133
  %23 = urem i32 %22, %20
  %24 = load ptr, ptr %5, align 8
  %25 = sext i32 %23 to i64
  %26 = getelementptr inbounds %struct.front_end_info, ptr %24, i64 %25, i32 5
  %27 = load ptr, ptr %26, align 8
  %.not27 = icmp eq ptr %27, null
  br i1 %.not27, label %34, label %28

28:                                               ; preds = %.lr.ph.split
  %29 = tail call i32 @xstrcmp(ptr noundef nonnull %0, ptr noundef nonnull %27) #9
  %.not28 = icmp eq i32 %29, 0
  br i1 %.not28, label %.loopexit.thread45, label %._crit_edge

._crit_edge:                                      ; preds = %28
  %.pre = load i32, ptr @scontrol_print_front_end.last_inx, align 4
  %.pre42 = load i32, ptr %3, align 8
  br label %34

.loopexit.thread45:                               ; preds = %28
  %30 = load ptr, ptr @stdout, align 8
  %31 = load ptr, ptr %5, align 8
  %32 = getelementptr inbounds %struct.front_end_info, ptr %31, i64 %25
  %33 = load i32, ptr @one_liner, align 4
  tail call void @slurm_print_front_end_table(ptr noundef %30, ptr noundef %32, i32 noundef %33) #9
  store i32 %23, ptr @scontrol_print_front_end.last_inx, align 4
  br label %47

34:                                               ; preds = %._crit_edge, %.lr.ph.split
  %35 = phi i32 [ %20, %.lr.ph.split ], [ %.pre42, %._crit_edge ]
  %36 = phi i32 [ %21, %.lr.ph.split ], [ %.pre, %._crit_edge ]
  %37 = add nuw nsw i32 %.02133, 1
  %38 = icmp ult i32 %37, %35
  br i1 %38, label %.lr.ph.split, label %.loopexit.thread, !llvm.loop !15

.loopexit:                                        ; preds = %16
  %39 = icmp eq i32 %.2.us, 0
  br i1 %39, label %.loopexit.thread, label %47

.loopexit.thread:                                 ; preds = %34, %2, %.loopexit
  %.not29 = icmp eq ptr %0, null
  br i1 %.not29, label %44, label %40

40:                                               ; preds = %.loopexit.thread
  store i32 1, ptr @exit_code, align 4
  %41 = load i32, ptr @quiet_flag, align 4
  %.not31 = icmp eq i32 %41, 1
  br i1 %.not31, label %47, label %42

42:                                               ; preds = %40
  %43 = tail call i32 (ptr, ...) @printf(ptr noundef nonnull dereferenceable(1) @.str.4, ptr noundef nonnull %0)
  br label %47

44:                                               ; preds = %.loopexit.thread
  %45 = load i32, ptr @quiet_flag, align 4
  %.not30 = icmp eq i32 %45, 1
  br i1 %.not30, label %47, label %46

46:                                               ; preds = %44
  %puts = tail call i32 @puts(ptr nonnull dereferenceable(1) @str.3)
  br label %47

47:                                               ; preds = %.loopexit.thread45, %42, %40, %46, %44, %.loopexit
  ret void
}